{
  "main_library": {
    "compatibility_versions": [
      {
        "version": "0"
      }
    ],
    "current_versions": [
      {
        "version": "0"
      }
    ],
    "exported_symbols": [
      {
        "data": {
          "global": [
            "__ZTV12DataNodeBase",
            "__ZTV19DataStorageUnitBase",
            "__ZTS19DataStorageUnitBase",
            "__ZTI12DataNodeBase",
            "__ZTS12DataNodeBase",
            "__ZTI19DataStorageUnitBase",
            "_LogLevel"
          ]
        },
        "text": {
          "global": [
            "__printLogLevel",
            "__ZN19DataStorageUnitBase18customReadMessagesEv",
            "__ZN9BSKLoggerC2Ev",
            "__ZN19DataStorageUnitBase5ResetEy",
            "__Z18setDefaultLogLevel10logLevel_t",
            "__ZN19DataStorageUnitBase12readMessagesEv",
            "__ZN12DataNodeBaseD1Ev",
            "__ZN12DataNodeBase5ResetEy",
            "__ZN9BSKLogger11getLogLevelEv",
            "__ZN9BSKLogger11setLogLevelE10logLevel_t",
            "__ZN12DataNodeBase11UpdateStateEy",
            "__ZN19DataStorageUnitBaseC2Ev",
            "__ZN12DataNodeBase17computeDataStatusEd",
            "__Z20printDefaultLogLevelv",
            "__ZN9BSKLoggerC1E10logLevel_t",
            "__ZN19DataStorageUnitBase19integrateDataStatusEd",
            "__ZN8SysModelC2ERKS_",
            "__ZN19DataStorageUnitBase19customWriteMessagesEy",
            "__ZN19DataStorageUnitBaseD2Ev",
            "__ZN8SysModelC1ERKS_",
            "__ZN12DataNodeBase19customWriteMessagesEy",
            "__ZN12DataNodeBase18customReadMessagesEv",
            "__ZN19DataStorageUnitBase19messageInStoredDataEP23DataNodeUsageMsgPayload",
            "__ZN9BSKLoggerC1Ev",
            "__ZN19DataStorageUnitBase13setDataBufferENSt3__112basic_stringIcNS0_11char_traitsIcEENS0_9allocatorIcEEEEx",
            "__ZN19DataStorageUnitBaseD1Ev",
            "__ZN12DataNodeBase11customResetEy",
            "__ZN19DataStorageUnitBaseD0Ev",
            "__ZN8SysModelC1Ev",
            "__ZN19DataStorageUnitBase11UpdateStateEy",
            "__ZN12DataNodeBase13writeMessagesEy",
            "__bskLog",
            "__ZN19DataStorageUnitBase13writeMessagesEy",
            "__ZN19DataStorageUnitBase18addDataNodeToModelEP7MessageI23DataNodeUsageMsgPayloadE",
            "__ZN9BSKLogger13printLogLevelEv",
            "__ZN9BSKLogger6bskLogE10logLevel_tPKcz",
            "__BSKLogger",
            "__ZN12DataNodeBaseC2Ev",
            "__ZN12DataNodeBase12readMessagesEv",
            "__ZN12DataNodeBaseD0Ev",
            "__ZN19DataStorageUnitBase10sumAllDataEv",
            "__BSKLogger_d",
            "__ZN12DataNodeBaseD2Ev",
            "__ZN19DataStorageUnitBaseC1Ev",
            "__ZN19DataStorageUnitBase11customResetEy",
            "__ZN8SysModelC2Ev",
            "__Z18getDefaultLogLevelv",
            "__setLogLevel",
            "__ZN9BSKLoggerC2E10logLevel_t"
          ]
        }
      }
    ],
    "flags": [
      {
        "attributes": [
          "not_app_extension_safe"
        ]
      }
    ],
    "install_names": [
      {
        "name": "@rpath/libonboardDataHandlingLib.dylib"
      }
    ],
    "target_info": [
      {
        "min_deployment": "14.4",
        "target": "arm64-macos"
      }
    ]
  },
  "tapi_tbd_version": 5
}
